; Function Attrs: mustprogress ssp uwtable
define void @_ZN6open3d4core17DynamicSizeVectorC2Ell(ptr noundef nonnull align 8 dereferenceable(80) %0, i64 noundef %1, i64 noundef %2) unnamed_addr #0 align 2 personality ptr @__gxx_personality_v0 {
  %4 = alloca %"class.open3d::utility::optional", align 8
  call void @llvm.lifetime.start.p0(i64 16, ptr nonnull %4) #29
  store i8 1, ptr %4, align 8, !tbaa !16
  %5 = getelementptr inbounds nuw i8, ptr %4, i64 8
  store i64 %2, ptr %5, align 8, !tbaa !19
  %6 = getelementptr inbounds nuw i8, ptr %0, i64 16
  store ptr %6, ptr %0, align 8, !tbaa !11
  %7 = getelementptr inbounds nuw i8, ptr %0, i64 8
  store i32 0, ptr %7, align 8, !tbaa !15
  %8 = getelementptr inbounds nuw i8, ptr %0, i64 12
  store i32 4, ptr %8, align 4, !tbaa !14
  invoke void @_ZN6open3d4core15SmallVectorImplINS_7utility8optionalIlEEE6assignEmRKS4_(ptr noundef nonnull align 8 dereferenceable(80) %0, i64 noundef %1, ptr noundef nonnull align 8 dereferenceable(16) %4)
          to label %_ZN6open3d4core11SmallVectorINS_7utility8optionalIlEELj4EEC2EmRKS4_.exit unwind label %9

9:                                                ; preds = %3
  %10 = landingpad { ptr, i32 }
          cleanup
  %11 = load ptr, ptr %0, align 8, !tbaa !11
  %12 = icmp eq ptr %11, %6
  br i1 %12, label %_ZN6open3d4core15SmallVectorImplINS_7utility8optionalIlEEED2Ev.exit.i, label %13

13:                                               ; preds = %9
  call void @free(ptr noundef %11) #29
  br label %_ZN6open3d4core15SmallVectorImplINS_7utility8optionalIlEEED2Ev.exit.i

_ZN6open3d4core15SmallVectorImplINS_7utility8optionalIlEEED2Ev.exit.i: ; preds = %13, %9
  resume { ptr, i32 } %10

_ZN6open3d4core11SmallVectorINS_7utility8optionalIlEELj4EEC2EmRKS4_.exit: ; preds = %3
  call void @llvm.lifetime.end.p0(i64 16, ptr nonnull %4) #29
  ret void
}